; ModuleID = '19/351.c'
source_filename = "19/351.c"
target datalayout = "e-m:e-p270:32:32-p271:32:32-p272:64:64-i64:64-f80:128-n8:16:32:64-S128"
target triple = "x86_64-pc-linux-gnu"

@.str = private unnamed_addr constant [3 x i8] c"%s\00", align 1
@.str.1 = private unnamed_addr constant [5 x i8] c"%s%s\00", align 1
@.str.2 = private unnamed_addr constant [4 x i8] c" %s\00", align 1

; Function Attrs: noinline nounwind uwtable
define dso_local void @main() #0 {
  %1 = alloca [30 x [20 x i8]], align 16
  %2 = alloca [20 x i8], align 16
  %3 = alloca [20 x i8], align 16
  %4 = alloca i32, align 4
  %5 = alloca i32, align 4
  %6 = bitcast [30 x [20 x i8]]* %1 to i8*
  call void @llvm.memset.p0i8.i64(i8* align 16 %6, i8 0, i64 600, i1 false)
  %7 = bitcast [20 x i8]* %2 to i8*
  call void @llvm.memset.p0i8.i64(i8* align 16 %7, i8 0, i64 20, i1 false)
  %8 = bitcast [20 x i8]* %3 to i8*
  call void @llvm.memset.p0i8.i64(i8* align 16 %8, i8 0, i64 20, i1 false)
  store i32 1, i32* %5, align 4
  %9 = getelementptr inbounds [30 x [20 x i8]], [30 x [20 x i8]]* %1, i64 0, i64 0
  %10 = getelementptr inbounds [20 x i8], [20 x i8]* %9, i64 0, i64 0
  %11 = call i32 (i8*, ...) @__isoc99_scanf(i8* getelementptr inbounds ([3 x i8], [3 x i8]* @.str, i64 0, i64 0), i8* %10)
  store i32 1, i32* %4, align 4
  br label %12

12:                                               ; preds = %23, %0
  %13 = call i32 @getchar()
  %14 = icmp ne i32 %13, 10
  br i1 %14, label %15, label %26

15:                                               ; preds = %12
  %16 = load i32, i32* %4, align 4
  %17 = sext i32 %16 to i64
  %18 = getelementptr inbounds [30 x [20 x i8]], [30 x [20 x i8]]* %1, i64 0, i64 %17
  %19 = getelementptr inbounds [20 x i8], [20 x i8]* %18, i64 0, i64 0
  %20 = call i32 (i8*, ...) @__isoc99_scanf(i8* getelementptr inbounds ([3 x i8], [3 x i8]* @.str, i64 0, i64 0), i8* %19)
  %21 = load i32, i32* %5, align 4
  %22 = add nsw i32 %21, 1
  store i32 %22, i32* %5, align 4
  br label %23

23:                                               ; preds = %15
  %24 = load i32, i32* %4, align 4
  %25 = add nsw i32 %24, 1
  store i32 %25, i32* %4, align 4
  br label %12

26:                                               ; preds = %12
  %27 = getelementptr inbounds [20 x i8], [20 x i8]* %2, i64 0, i64 0
  %28 = getelementptr inbounds [20 x i8], [20 x i8]* %3, i64 0, i64 0
  %29 = call i32 (i8*, ...) @__isoc99_scanf(i8* getelementptr inbounds ([5 x i8], [5 x i8]* @.str.1, i64 0, i64 0), i8* %27, i8* %28)
  store i32 0, i32* %4, align 4
  br label %30

30:                                               ; preds = %50, %26
  %31 = load i32, i32* %4, align 4
  %32 = load i32, i32* %5, align 4
  %33 = icmp slt i32 %31, %32
  br i1 %33, label %34, label %53

34:                                               ; preds = %30
  %35 = load i32, i32* %4, align 4
  %36 = sext i32 %35 to i64
  %37 = getelementptr inbounds [30 x [20 x i8]], [30 x [20 x i8]]* %1, i64 0, i64 %36
  %38 = getelementptr inbounds [20 x i8], [20 x i8]* %37, i64 0, i64 0
  %39 = getelementptr inbounds [20 x i8], [20 x i8]* %2, i64 0, i64 0
  %40 = call i32 @strcmp(i8* %38, i8* %39) #5
  %41 = icmp eq i32 %40, 0
  br i1 %41, label %42, label %49

42:                                               ; preds = %34
  %43 = load i32, i32* %4, align 4
  %44 = sext i32 %43 to i64
  %45 = getelementptr inbounds [30 x [20 x i8]], [30 x [20 x i8]]* %1, i64 0, i64 %44
  %46 = getelementptr inbounds [20 x i8], [20 x i8]* %45, i64 0, i64 0
  %47 = getelementptr inbounds [20 x i8], [20 x i8]* %3, i64 0, i64 0
  %48 = call i8* @strcpy(i8* %46, i8* %47) #6
  br label %49

49:                                               ; preds = %42, %34
  br label %50

50:                                               ; preds = %49
  %51 = load i32, i32* %4, align 4
  %52 = add nsw i32 %51, 1
  store i32 %52, i32* %4, align 4
  br label %30

53:                                               ; preds = %30
  %54 = getelementptr inbounds [30 x [20 x i8]], [30 x [20 x i8]]* %1, i64 0, i64 0
  %55 = getelementptr inbounds [20 x i8], [20 x i8]* %54, i64 0, i64 0
  %56 = call i32 (i8*, ...) @printf(i8* getelementptr inbounds ([3 x i8], [3 x i8]* @.str, i64 0, i64 0), i8* %55)
  store i32 1, i32* %4, align 4
  br label %57

57:                                               ; preds = %67, %53
  %58 = load i32, i32* %4, align 4
  %59 = load i32, i32* %5, align 4
  %60 = icmp slt i32 %58, %59
  br i1 %60, label %61, label %70

61:                                               ; preds = %57
  %62 = load i32, i32* %4, align 4
  %63 = sext i32 %62 to i64
  %64 = getelementptr inbounds [30 x [20 x i8]], [30 x [20 x i8]]* %1, i64 0, i64 %63
  %65 = getelementptr inbounds [20 x i8], [20 x i8]* %64, i64 0, i64 0
  %66 = call i32 (i8*, ...) @printf(i8* getelementptr inbounds ([4 x i8], [4 x i8]* @.str.2, i64 0, i64 0), i8* %65)
  br label %67

67:                                               ; preds = %61
  %68 = load i32, i32* %4, align 4
  %69 = add nsw i32 %68, 1
  store i32 %69, i32* %4, align 4
  br label %57

70:                                               ; preds = %57
  ret void
}

; Function Attrs: argmemonly nounwind willreturn
declare void @llvm.memset.p0i8.i64(i8* nocapture writeonly, i8, i64, i1 immarg) #1

declare dso_local i32 @__isoc99_scanf(i8*, ...) #2

declare dso_local i32 @getchar() #2

; Function Attrs: nounwind readonly
declare dso_local i32 @strcmp(i8*, i8*) #3

; Function Attrs: nounwind
declare dso_local i8* @strcpy(i8*, i8*) #4

declare dso_local i32 @printf(i8*, ...) #2


!llvm.module.flags = !{!0}
!llvm.ident = !{!1}

!0 = !{i32 1, !"wchar_size", i32 4}
!1 = !{!"clang version 10.0.0-4ubuntu1 "}
